; Function Attrs: mustprogress nounwind uwtable
define internal noundef i32 @_ZN4node12_GLOBAL__N_16Parser5ProxyIMS1_FiPKcmEXadL_ZNS1_6on_urlES4_mEEE3RawEP18llhttp__internal_sS4_m(ptr noundef %p, ptr noundef %args, i64 noundef %args1) #3 align 2 {
entry:
  %0 = ptrtoint ptr %p to i64
  %sub.i.i = add i64 %0, -80
  %1 = inttoptr i64 %sub.i.i to ptr
  %header_nread_.i.i = getelementptr inbounds i8, ptr %1, i64 1808
  %2 = load i64, ptr %header_nread_.i.i, align 8
  %add.i.i = add i64 %2, %args1
  store i64 %add.i.i, ptr %header_nread_.i.i, align 8
  %max_http_header_size_.i.i = getelementptr inbounds i8, ptr %1, i64 1816
  %3 = load i64, ptr %max_http_header_size_.i.i, align 8
  %cmp.not.i.i = icmp ult i64 %add.i.i, %3
  br i1 %cmp.not.i.i, label %if.end.i, label %if.end.sink.split

if.end.i:                                         ; preds = %entry
  %url_.i = getelementptr inbounds i8, ptr %1, i64 1712
  %4 = load ptr, ptr %url_.i, align 8
  %cmp.i.i = icmp eq ptr %4, null
  br i1 %cmp.i.i, label %if.end19.sink.split.i.i, label %if.else.i.i

if.else.i.i:                                      ; preds = %if.end.i
  %on_heap_.i.i = getelementptr inbounds i8, ptr %1, i64 1720
  %5 = load i8, ptr %on_heap_.i.i, align 8
  %6 = and i8 %5, 1
  %tobool.not.i.i = icmp eq i8 %6, 0
  %size_.i.i = getelementptr inbounds i8, ptr %1, i64 1728
  %7 = load i64, ptr %size_.i.i, align 8
  %add.ptr.i.i = getelementptr inbounds i8, ptr %4, i64 %7
  %cmp4.not.i.i = icmp eq ptr %add.ptr.i.i, %args
  %or.cond.i.i = select i1 %tobool.not.i.i, i1 %cmp4.not.i.i, i1 false
  br i1 %or.cond.i.i, label %if.then, label %if.then5.i.i

if.then5.i.i:                                     ; preds = %if.else.i.i
  %add.i3.i = add i64 %7, %args1
  %call.i.i = tail call noalias noundef nonnull ptr @_Znam(i64 noundef %add.i3.i) #21
  tail call void @llvm.memcpy.p0.p0.i64(ptr nonnull align 1 %call.i.i, ptr nonnull align 1 %4, i64 %7, i1 false)
  %add.ptr10.i.i = getelementptr inbounds i8, ptr %call.i.i, i64 %7
  tail call void @llvm.memcpy.p0.p0.i64(ptr nonnull align 1 %add.ptr10.i.i, ptr align 1 %args, i64 %args1, i1 false)
  br i1 %tobool.not.i.i, label %if.else15.i.i, label %delete.notnull.i.i

delete.notnull.i.i:                               ; preds = %if.then5.i.i
  tail call void @_ZdaPv(ptr noundef nonnull %4) #23
  br label %if.end19.sink.split.i.i

if.else15.i.i:                                    ; preds = %if.then5.i.i
  store i8 1, ptr %on_heap_.i.i, align 8
  br label %if.end19.sink.split.i.i

if.end19.sink.split.i.i:                          ; preds = %if.else15.i.i, %delete.notnull.i.i, %if.end.i
  %call.sink.i.i = phi ptr [ %args, %if.end.i ], [ %call.i.i, %delete.notnull.i.i ], [ %call.i.i, %if.else15.i.i ]
  store ptr %call.sink.i.i, ptr %url_.i, align 8
  %size_20.i.phi.trans.insert.i = getelementptr inbounds i8, ptr %1, i64 1728
  %.pre.i = load i64, ptr %size_20.i.phi.trans.insert.i, align 8
  br label %if.then

if.then:                                          ; preds = %if.else.i.i, %if.end19.sink.split.i.i
  %8 = phi i64 [ %7, %if.else.i.i ], [ %.pre.i, %if.end19.sink.split.i.i ]
  %size_20.i.i = getelementptr inbounds i8, ptr %1, i64 1728
  %add21.i.i = add i64 %8, %args1
  store i64 %add21.i.i, ptr %size_20.i.i, align 8
  %pending_pause_.i = getelementptr inbounds i8, ptr %1, i64 1801
  %9 = load i8, ptr %pending_pause_.i, align 1
  %10 = and i8 %9, 1
  %tobool.not.i = icmp eq i8 %10, 0
  br i1 %tobool.not.i, label %if.end, label %if.end.i3

if.end.i3:                                        ; preds = %if.then
  store i8 0, ptr %pending_pause_.i, align 1
  br label %if.end.sink.split

if.end.sink.split:                                ; preds = %entry, %if.end.i3
  %.str.123.sink = phi ptr [ @.str.123, %if.end.i3 ], [ @.str.124, %entry ]
  %rv.0.ph = phi i32 [ 21, %if.end.i3 ], [ 24, %entry ]
  %parser_.i = getelementptr inbounds i8, ptr %1, i64 80
  tail call void @llhttp_set_error_reason(ptr noundef nonnull %parser_.i, ptr noundef nonnull %.str.123.sink) #20
  br label %if.end

if.end:                                           ; preds = %if.end.sink.split, %if.then
  %rv.0 = phi i32 [ 0, %if.then ], [ %rv.0.ph, %if.end.sink.split ]
  ret i32 %rv.0
}